; Function Attrs: mustprogress nounwind uwtable
define internal void @_ZN9grpc_core12_GLOBAL__N_115AresDNSResolver14AresTXTRequestD0Ev(ptr noundef nonnull align 8 dereferenceable(208) %0) unnamed_addr #3 align 2 personality ptr @__gxx_personality_v0 {
  %2 = getelementptr inbounds nuw i8, ptr %0, i64 168
  %3 = load ptr, ptr %2, align 8, !tbaa !321
  invoke void @gpr_free(ptr noundef %3)
          to label %4 unwind label %13

4:                                                ; preds = %1
  %5 = getelementptr inbounds nuw i8, ptr %0, i64 192
  %6 = load ptr, ptr %5, align 8, !tbaa !201
  %.not.i.i = icmp eq ptr %6, null
  br i1 %.not.i.i, label %_ZN9grpc_core12_GLOBAL__N_115AresDNSResolver14AresTXTRequestD2Ev.exit, label %7

7:                                                ; preds = %4
  %8 = getelementptr inbounds nuw i8, ptr %0, i64 176
  %9 = invoke noundef zeroext i1 %6(ptr noundef nonnull align 8 dereferenceable(32) %8, ptr noundef nonnull align 8 dereferenceable(32) %8, i32 noundef 3)
          to label %_ZN9grpc_core12_GLOBAL__N_115AresDNSResolver14AresTXTRequestD2Ev.exit unwind label %10

10:                                               ; preds = %7
  %11 = landingpad { ptr, i32 }
          catch ptr null
  %12 = extractvalue { ptr, i32 } %11, 0
  tail call void @__clang_call_terminate(ptr %12) #36
  unreachable

13:                                               ; preds = %1
  %14 = landingpad { ptr, i32 }
          catch ptr null
  %15 = extractvalue { ptr, i32 } %14, 0
  tail call void @__clang_call_terminate(ptr %15) #36
  unreachable

_ZN9grpc_core12_GLOBAL__N_115AresDNSResolver14AresTXTRequestD2Ev.exit: ; preds = %4, %7
  tail call void @_ZN9grpc_core12_GLOBAL__N_115AresDNSResolver11AresRequestD2Ev(ptr noundef nonnull align 8 dereferenceable(208) %0) #34
  tail call void @_ZdlPvm(ptr noundef nonnull %0, i64 noundef 208) #37
  ret void
}